; Function Attrs: mustprogress nounwind uwtable
define internal void @_ZN5clang4ento5check11ASTCodeBody10_checkBodyIN12_GLOBAL__N_19CFGDumperEEEvPvPKNS_4DeclERNS0_15AnalysisManagerERNS0_11BugReporterE(ptr readnone captures(none) %0, ptr noundef %1, ptr noundef nonnull align 8 dereferenceable(256) %2, ptr nonnull readnone align 8 captures(none) %3) #0 align 2 {
  %5 = alloca %"struct.clang::PrintingPolicy", align 8
  call void @llvm.lifetime.start.p0(i64 16, ptr nonnull %5)
  %6 = getelementptr inbounds nuw i8, ptr %2, i64 192
  %7 = load ptr, ptr %6, align 8
  %8 = load i64, ptr %7, align 8
  %9 = lshr i64 %8, 2
  %10 = and i64 %9, 512
  %11 = lshr i64 %8, 4
  %12 = and i64 %11, 4194304
  %13 = and i64 %8, 4096
  %.not.i.i = icmp eq i64 %13, 0
  %14 = shl i64 %8, 20
  %15 = and i64 %14, 8388608
  %16 = select i1 %.not.i.i, i64 %15, i64 8388608
  %17 = shl i64 %8, 13
  %18 = and i64 %17, 16777216
  %19 = shl i64 %8, 25
  %20 = and i64 %19, 33554432
  %21 = shl i64 %8, 14
  %22 = and i64 %21, 67108864
  %23 = shl i64 %8, 26
  %24 = and i64 %23, 134217728
  %25 = shl i64 %8, 17
  %26 = and i64 %25, 805306368
  %27 = shl i64 %8, 5
  %28 = and i64 %27, 4294967296
  %29 = and i64 %8, 128
  %.not17.i.i = icmp eq i64 %29, 0
  %30 = and i64 %27, 8589934592
  %31 = xor i64 %30, 56100862820352
  %32 = select i1 %.not17.i.i, i64 56092272885760, i64 %31
  %33 = getelementptr inbounds nuw i8, ptr %7, i64 88
  %34 = load i64, ptr %33, align 8
  %35 = shl i64 %34, 37
  %36 = and i64 %35, 70368744177664
  %37 = getelementptr inbounds nuw i8, ptr %5, i64 8
  store ptr null, ptr %37, align 8
  %38 = or disjoint i64 %12, %10
  %39 = or disjoint i64 %38, %18
  %40 = or disjoint i64 %39, %20
  %41 = or disjoint i64 %40, %22
  %.masked.masked.masked.masked.i = or disjoint i64 %41, %24
  %.masked3.masked.masked.i.masked = or i64 %.masked.masked.masked.masked.i, %26
  %.masked4 = or i64 %.masked3.masked.masked.i.masked, %28
  %.masked = or i64 %.masked4, %16
  %.masked.masked.i.masked = or i64 %.masked, %36
  %42 = or i64 %.masked.masked.i.masked, %32
  %43 = xor i64 %42, 4028768258
  store i64 %43, ptr %5, align 8
  %44 = tail call noundef nonnull align 8 dereferenceable(96) ptr @_ZN4llvm4errsEv() #22
  call void @_ZNK5clang4Decl5printERN4llvm11raw_ostreamERKNS_14PrintingPolicyEjb(ptr noundef nonnull align 8 dereferenceable(33) %1, ptr noundef nonnull align 8 dereferenceable(48) %44, ptr noundef nonnull align 8 dereferenceable(16) %5, i32 noundef 0, i1 noundef zeroext false) #22
  %45 = getelementptr inbounds nuw i8, ptr %2, i64 8
  %46 = call noundef ptr @_ZN5clang26AnalysisDeclContextManager10getContextEPKNS_4DeclE(ptr noundef nonnull align 8 dereferenceable(161) %45, ptr noundef nonnull %1) #22
  %47 = call noundef ptr @_ZN5clang19AnalysisDeclContext6getCFGEv(ptr noundef nonnull align 8 dereferenceable(248) %46) #22
  %.not.i = icmp eq ptr %47, null
  br i1 %.not.i, label %_ZNK12_GLOBAL__N_19CFGDumper16checkASTCodeBodyEPKN5clang4DeclERNS1_4ento15AnalysisManagerERNS5_11BugReporterE.exit, label %48

48:                                               ; preds = %4
  %49 = load ptr, ptr %6, align 8
  %50 = call noundef zeroext i1 @_ZN4llvm3sys7Process20StandardErrHasColorsEv() #22
  call void @_ZNK5clang3CFG4dumpERKNS_11LangOptionsEb(ptr noundef nonnull align 8 dereferenceable(112) %47, ptr noundef nonnull align 8 dereferenceable(841) %49, i1 noundef zeroext %50) #22
  br label %_ZNK12_GLOBAL__N_19CFGDumper16checkASTCodeBodyEPKN5clang4DeclERNS1_4ento15AnalysisManagerERNS5_11BugReporterE.exit

_ZNK12_GLOBAL__N_19CFGDumper16checkASTCodeBodyEPKN5clang4DeclERNS1_4ento15AnalysisManagerERNS5_11BugReporterE.exit: ; preds = %4, %48
  call void @llvm.lifetime.end.p0(i64 16, ptr nonnull %5)
  ret void
}